target datalayout = "e-m:e-p270:32:32-p271:32:32-p272:64:64-i64:64-i128:128-f80:128-n8:16:32:64-S128"
target triple = "x86_64-pc-linux-gnu"

%struct.VP8EncIterator = type { i32, i32, ptr, ptr, ptr, ptr, ptr, ptr, ptr, ptr, ptr, [37 x i8], ptr, i32, [9 x i32], [9 x i32], [4 x [3 x i64]], i64, i64, ptr, i32, i32, i32, i32, [2 x [2 x i8]], ptr, ptr, ptr, ptr, ptr, ptr, [88 x i8], [3359 x i8] }

@VP8EncPredLuma16 = external global ptr, align 8

; Function Attrs: nounwind uwtable
define hidden void @VP8MakeLuma16Preds(ptr noundef %0) #0 {
  %2 = alloca ptr, align 8
  %3 = alloca ptr, align 8
  %4 = alloca ptr, align 8
  store ptr %0, ptr %2, align 8
  %5 = load ptr, ptr %2, align 8
  %6 = getelementptr inbounds %struct.VP8EncIterator, ptr %5, i32 0, i32 0
  %7 = load i32, ptr %6, align 8
  %8 = icmp ne i32 %7, 0
  br i1 %8, label %9, label %13

9:                                                ; preds = %1
  %10 = load ptr, ptr %2, align 8
  %11 = getelementptr inbounds %struct.VP8EncIterator, ptr %10, i32 0, i32 26
  %12 = load ptr, ptr %11, align 8
  br label %14

13:                                               ; preds = %1
  br label %14

14:                                               ; preds = %13, %9
  %15 = phi ptr [ %12, %9 ], [ null, %13 ]
  store ptr %15, ptr %3, align 8
  %16 = load ptr, ptr %2, align 8
  %17 = getelementptr inbounds %struct.VP8EncIterator, ptr %16, i32 0, i32 1
  %18 = load i32, ptr %17, align 4
  %19 = icmp ne i32 %18, 0
  br i1 %19, label %20, label %24

20:                                               ; preds = %14
  %21 = load ptr, ptr %2, align 8
  %22 = getelementptr inbounds %struct.VP8EncIterator, ptr %21, i32 0, i32 29
  %23 = load ptr, ptr %22, align 8
  br label %25

24:                                               ; preds = %14
  br label %25

25:                                               ; preds = %24, %20
  %26 = phi ptr [ %23, %20 ], [ null, %24 ]
  store ptr %26, ptr %4, align 8
  %27 = load ptr, ptr @VP8EncPredLuma16, align 8
  %28 = load ptr, ptr %2, align 8
  %29 = getelementptr inbounds %struct.VP8EncIterator, ptr %28, i32 0, i32 5
  %30 = load ptr, ptr %29, align 8
  %31 = load ptr, ptr %3, align 8
  %32 = load ptr, ptr %4, align 8
  call void %27(ptr noundef %30, ptr noundef %31, ptr noundef %32)
  ret void
}